Certificate:
    Data:
        Version: 3 (0x2)
        Serial Number: 1 (0x1)
    Signature Algorithm: sha256WithRSAEncryption
        Issuer: C=VN, ST=HCMC, L=Ho Chi Minh City, O=FIT HCMUS, OU=Huy and Hy, CN=FIT HCMUS CA/name=root/emailAddress=root@huyhy.com
        Validity
            Not Before: Jan 11 16:58:55 2019 GMT
            Not After : Jan  8 16:58:55 2029 GMT
        Subject: C=VN, ST=HCMC, L=Ho Chi Minh City, O=FIT HCMUS, OU=Huy and Hy, CN=www.huyhy.com/name=root/emailAddress=root@huyhy.com
        Subject Public Key Info:
            Public Key Algorithm: rsaEncryption
                Public-Key: (2048 bit)
                Modulus:
                    00:ae:c4:e6:f9:08:61:ff:44:93:16:f8:4e:72:69:
                    d9:7d:70:3e:72:8a:82:e6:55:ec:88:cf:c0:40:66:
                    90:f6:37:da:9d:fb:2c:6a:de:bb:79:8f:e0:ae:1c:
                    7b:11:7c:c4:95:bc:ef:e1:b5:98:21:a5:27:76:4c:
                    b3:b4:e4:8d:eb:c6:b8:5c:2a:28:5f:6a:90:8d:a1:
                    c6:a5:59:d8:d6:3c:79:2d:17:15:68:f1:a8:6a:18:
                    4d:1e:f2:5d:2e:fa:e4:72:70:70:71:06:6a:7f:97:
                    ed:f4:ea:ba:b8:8f:2f:6c:fb:a3:ce:3d:d5:b7:ee:
                    9d:8f:3d:a0:12:67:fb:6d:01:87:ad:05:fc:2f:61:
                    65:a1:3f:c3:76:91:3b:c5:4f:cd:70:74:62:5f:ee:
                    43:60:e6:a6:c4:40:3a:11:c8:42:fb:b7:71:cb:f7:
                    97:d0:23:81:9a:8b:b2:63:77:9b:d5:d7:5e:7c:dd:
                    fb:25:52:c8:80:71:19:aa:96:a7:64:bb:fb:4c:c9:
                    98:bb:29:fe:e0:83:30:13:87:b6:12:ef:99:25:73:
                    63:20:12:5b:2b:68:37:c6:31:25:a6:87:3c:ff:fc:
                    25:24:23:a7:1f:e1:77:dc:ec:1b:cc:21:7b:64:8c:
                    20:60:81:a0:94:7b:08:89:a4:2c:b2:cd:f3:29:15:
                    7c:b5
                Exponent: 65537 (0x10001)
        X509v3 extensions:
            X509v3 Basic Constraints: 
                CA:FALSE
            Netscape Cert Type: 
                SSL Server
            Netscape Comment: 
                Easy-RSA Generated Server Certificate
            X509v3 Subject Key Identifier: 
                01:39:3C:92:1F:91:D0:CE:23:42:9C:DA:B7:3D:25:6B:54:98:D4:E3
            X509v3 Authority Key Identifier: 
                keyid:03:8E:EA:25:8F:D5:D4:36:F8:20:1F:F8:D6:F6:5F:6B:E9:E7:E8:C5
                DirName:/C=VN/ST=HCMC/L=Ho Chi Minh City/O=FIT HCMUS/OU=Huy and Hy/CN=FIT HCMUS CA/name=root/emailAddress=root@huyhy.com
                serial:DE:0F:82:48:0A:54:11:80

            X509v3 Extended Key Usage: 
                TLS Web Server Authentication
            X509v3 Key Usage: 
                Digital Signature, Key Encipherment
            X509v3 Subject Alternative Name: 
                DNS:www.huyhy.com
    Signature Algorithm: sha256WithRSAEncryption
         7f:26:ed:de:6d:46:b5:c5:ad:a0:50:6f:5a:5e:7b:c1:1e:79:
         e9:91:d7:77:69:92:ad:64:83:87:a9:db:e7:2b:49:0d:d3:f6:
         5b:ab:96:ee:ac:6b:44:c7:bf:df:3e:a5:eb:03:28:3e:d0:8c:
         21:cc:62:ae:df:83:33:9f:95:6b:62:c4:41:bd:82:2c:01:a9:
         6c:86:7e:1a:96:fd:93:42:a5:c7:f5:35:0d:4f:aa:ab:b2:fc:
         69:b3:b5:08:69:28:23:5d:f2:ff:8d:4e:da:d9:a9:e0:00:71:
         c8:5f:77:2f:0d:dd:f3:5c:13:e6:20:d7:19:e2:01:65:26:8b:
         29:8f:84:86:82:e3:75:05:5a:f6:e7:8d:75:6b:9f:5a:04:71:
         1a:49:6d:57:08:f5:e9:2a:39:fa:a6:72:ba:14:a3:47:24:b2:
         5a:e4:29:c5:72:eb:3f:ee:41:d3:68:b7:1c:c8:d0:bc:26:88:
         01:6d:ec:d5:80:ed:66:01:9b:c6:c1:b0:c1:17:59:3a:bd:80:
         70:4a:2f:bf:d2:1a:f6:af:e5:47:0a:bf:4f:44:de:a5:6a:47:
         1f:0a:80:1f:ac:7f:88:64:54:b1:0d:fd:8c:c6:62:4d:9c:59:
         91:da:49:a2:bb:44:3e:ac:c0:77:79:70:c9:54:ef:19:44:a1:
         30:ad:3e:0a
-----BEGIN CERTIFICATE-----
MIIFWjCCBEKgAwIBAgIBATANBgkqhkiG9w0BAQsFADCBpTELMAkGA1UEBhMCVk4x
DTALBgNVBAgTBEhDTUMxGTAXBgNVBAcTEEhvIENoaSBNaW5oIENpdHkxEjAQBgNV
BAoTCUZJVCBIQ01VUzETMBEGA1UECxMKSHV5IGFuZCBIeTEVMBMGA1UEAxMMRklU
IEhDTVVTIENBMQ0wCwYDVQQpEwRyb290MR0wGwYJKoZIhvcNAQkBFg5yb290QGh1
eWh5LmNvbTAeFw0xOTAxMTExNjU4NTVaFw0yOTAxMDgxNjU4NTVaMIGmMQswCQYD
VQQGEwJWTjENMAsGA1UECBMESENNQzEZMBcGA1UEBxMQSG8gQ2hpIE1pbmggQ2l0
eTESMBAGA1UEChMJRklUIEhDTVVTMRMwEQYDVQQLEwpIdXkgYW5kIEh5MRYwFAYD
VQQDEw13d3cuaHV5aHkuY29tMQ0wCwYDVQQpEwRyb290MR0wGwYJKoZIhvcNAQkB
Fg5yb290QGh1eWh5LmNvbTCCASIwDQYJKoZIhvcNAQEBBQADggEPADCCAQoCggEB
AK7E5vkIYf9Ekxb4TnJp2X1wPnKKguZV7IjPwEBmkPY32p37LGreu3mP4K4cexF8
xJW87+G1mCGlJ3ZMs7TkjevGuFwqKF9qkI2hxqVZ2NY8eS0XFWjxqGoYTR7yXS76
5HJwcHEGan+X7fTquriPL2z7o8491bfunY89oBJn+20Bh60F/C9hZaE/w3aRO8VP
zXB0Yl/uQ2DmpsRAOhHIQvu3ccv3l9AjgZqLsmN3m9XXXnzd+yVSyIBxGaqWp2S7
+0zJmLsp/uCDMBOHthLvmSVzYyASWytoN8YxJaaHPP/8JSQjpx/hd9zsG8whe2SM
IGCBoJR7CImkLLLN8ykVfLUCAwEAAaOCAZAwggGMMAkGA1UdEwQCMAAwEQYJYIZI
AYb4QgEBBAQDAgZAMDQGCWCGSAGG+EIBDQQnFiVFYXN5LVJTQSBHZW5lcmF0ZWQg
U2VydmVyIENlcnRpZmljYXRlMB0GA1UdDgQWBBQBOTySH5HQziNCnNq3PSVrVJjU
4zCB2gYDVR0jBIHSMIHPgBQDjuolj9XUNvggH/jW9l9r6efoxaGBq6SBqDCBpTEL
MAkGA1UEBhMCVk4xDTALBgNVBAgTBEhDTUMxGTAXBgNVBAcTEEhvIENoaSBNaW5o
IENpdHkxEjAQBgNVBAoTCUZJVCBIQ01VUzETMBEGA1UECxMKSHV5IGFuZCBIeTEV
MBMGA1UEAxMMRklUIEhDTVVTIENBMQ0wCwYDVQQpEwRyb290MR0wGwYJKoZIhvcN
AQkBFg5yb290QGh1eWh5LmNvbYIJAN4PgkgKVBGAMBMGA1UdJQQMMAoGCCsGAQUF
BwMBMAsGA1UdDwQEAwIFoDAYBgNVHREEETAPgg13d3cuaHV5aHkuY29tMA0GCSqG
SIb3DQEBCwUAA4IBAQB/Ju3ebUa1xa2gUG9aXnvBHnnpkdd3aZKtZIOHqdvnK0kN
0/Zbq5burGtEx7/fPqXrAyg+0IwhzGKu34Mzn5VrYsRBvYIsAalshn4alv2TQqXH
9TUNT6qrsvxps7UIaSgjXfL/jU7a2angAHHIX3cvDd3zXBPmINcZ4gFlJospj4SG
guN1BVr25411a59aBHEaSW1XCPXpKjn6pnK6FKNHJLJa5CnFcus/7kHTaLccyNC8
JogBbezVgO1mAZvGwbDBF1k6vYBwSi+/0hr2r+VHCr9PRN6lakcfCoAfrH+IZFSx
Df2MxmJNnFmR2kmiu0Q+rMB3eXDJVO8ZRKEwrT4K
-----END CERTIFICATE-----
