Certificate:
    Data:
        Version: 3 (0x2)
        Serial Number: 2 (0x2)
    Signature Algorithm: sha256WithRSAEncryption
        Issuer: C=VN, ST=HCMC, L=Ho Chi Minh City, O=FIT HCMUS, OU=Huy and Hy, CN=FIT HCMUS CA/name=root/emailAddress=root@huyhy.com
        Validity
            Not Before: Jan 11 16:59:29 2019 GMT
            Not After : Jan  8 16:59:29 2029 GMT
        Subject: C=VN, ST=HCMC, L=Ho Chi Minh City, O=FIT HCMUS, OU=Huy and Hy, CN=www.huyhymedia.com/name=root/emailAddress=root@huyhy.com
        Subject Public Key Info:
            Public Key Algorithm: rsaEncryption
                Public-Key: (2048 bit)
                Modulus:
                    00:d3:f4:ba:1d:56:55:d8:f0:ac:8e:1a:da:51:b4:
                    de:6c:88:08:98:bb:f1:b3:81:8d:25:6b:20:a6:5b:
                    3c:2d:83:a4:3b:13:35:fa:1b:dc:78:bc:df:25:06:
                    78:bb:4b:44:7b:73:b4:4b:48:bd:c4:c2:4d:95:23:
                    4b:6e:51:8f:53:2d:01:1d:90:d3:a2:ac:87:05:79:
                    66:8b:27:9f:d5:6a:8b:9e:4f:f0:6c:30:75:46:fd:
                    f0:39:fb:33:6c:49:48:85:38:cb:44:f7:90:40:8a:
                    39:a2:fd:38:ff:70:3e:c5:ad:5c:18:3e:49:dd:c9:
                    46:f8:52:15:de:8b:e2:ca:e1:27:98:ac:79:f2:12:
                    51:24:f2:48:df:79:fb:81:28:b5:1a:b3:91:7b:e0:
                    b6:b4:97:9f:49:78:35:74:b1:e3:23:21:cc:dc:98:
                    2f:e4:e3:ad:b8:fe:48:5d:78:bc:24:9a:dd:51:02:
                    39:02:59:67:74:14:c7:84:92:a3:a5:37:9f:19:91:
                    36:97:a6:d1:8a:05:fa:7b:03:cf:3b:19:67:b6:f3:
                    8b:58:b6:e3:54:c3:f0:15:e6:08:b8:b9:17:af:bd:
                    1a:1c:a5:97:07:04:e7:a6:9f:0a:55:fa:51:67:53:
                    90:9b:73:e9:fe:08:4c:91:c4:57:dc:fe:41:04:2f:
                    22:7f
                Exponent: 65537 (0x10001)
        X509v3 extensions:
            X509v3 Basic Constraints: 
                CA:FALSE
            Netscape Cert Type: 
                SSL Server
            Netscape Comment: 
                Easy-RSA Generated Server Certificate
            X509v3 Subject Key Identifier: 
                51:2F:43:FC:40:6D:0C:6A:0C:1F:1A:1F:B1:D7:38:15:6F:A6:60:61
            X509v3 Authority Key Identifier: 
                keyid:03:8E:EA:25:8F:D5:D4:36:F8:20:1F:F8:D6:F6:5F:6B:E9:E7:E8:C5
                DirName:/C=VN/ST=HCMC/L=Ho Chi Minh City/O=FIT HCMUS/OU=Huy and Hy/CN=FIT HCMUS CA/name=root/emailAddress=root@huyhy.com
                serial:DE:0F:82:48:0A:54:11:80

            X509v3 Extended Key Usage: 
                TLS Web Server Authentication
            X509v3 Key Usage: 
                Digital Signature, Key Encipherment
            X509v3 Subject Alternative Name: 
                DNS:www.huyhymedia.com
    Signature Algorithm: sha256WithRSAEncryption
         39:45:89:a5:6e:2c:61:07:5c:59:a3:52:9b:b7:18:c0:48:4a:
         65:80:e6:ad:00:ee:55:1b:53:38:3c:8e:bf:36:82:fd:66:ad:
         6c:de:80:78:cd:63:66:ce:b9:18:80:82:2b:3a:1a:1e:7a:39:
         b8:32:2e:cc:5c:eb:3b:93:7b:c9:82:5a:c3:47:e9:7e:45:70:
         d1:e2:89:50:95:c8:11:53:d3:c0:37:cf:6b:73:40:80:09:3b:
         0b:d0:9b:6b:72:6a:7b:25:c8:c7:09:ab:05:76:5f:19:52:ea:
         a5:bd:63:cc:08:c0:4f:8c:ba:d4:ab:22:4f:85:03:d4:92:07:
         01:8f:3b:ae:96:03:b7:d1:9d:44:e2:8c:23:d3:a3:d0:17:7b:
         21:72:c4:89:35:85:92:0b:1c:64:71:91:9f:ff:79:9f:7e:9b:
         f2:b2:e0:af:58:5e:1e:96:9a:e2:3e:70:f1:79:79:2a:38:bb:
         ce:70:01:8f:90:2e:7b:c6:64:e0:28:ee:d2:5c:27:13:73:40:
         6e:bc:bd:c7:74:44:9f:bb:01:01:d2:ee:08:e9:b4:73:e0:cb:
         d3:6e:aa:e5:63:4f:8b:a3:68:3c:60:4d:c0:d4:16:4a:12:5a:
         97:e3:1d:d1:37:bb:35:e9:51:38:9d:fa:a2:07:08:9b:17:15:
         42:19:4a:40
-----BEGIN CERTIFICATE-----
MIIFZDCCBEygAwIBAgIBAjANBgkqhkiG9w0BAQsFADCBpTELMAkGA1UEBhMCVk4x
DTALBgNVBAgTBEhDTUMxGTAXBgNVBAcTEEhvIENoaSBNaW5oIENpdHkxEjAQBgNV
BAoTCUZJVCBIQ01VUzETMBEGA1UECxMKSHV5IGFuZCBIeTEVMBMGA1UEAxMMRklU
IEhDTVVTIENBMQ0wCwYDVQQpEwRyb290MR0wGwYJKoZIhvcNAQkBFg5yb290QGh1
eWh5LmNvbTAeFw0xOTAxMTExNjU5MjlaFw0yOTAxMDgxNjU5MjlaMIGrMQswCQYD
VQQGEwJWTjENMAsGA1UECBMESENNQzEZMBcGA1UEBxMQSG8gQ2hpIE1pbmggQ2l0
eTESMBAGA1UEChMJRklUIEhDTVVTMRMwEQYDVQQLEwpIdXkgYW5kIEh5MRswGQYD
VQQDExJ3d3cuaHV5aHltZWRpYS5jb20xDTALBgNVBCkTBHJvb3QxHTAbBgkqhkiG
9w0BCQEWDnJvb3RAaHV5aHkuY29tMIIBIjANBgkqhkiG9w0BAQEFAAOCAQ8AMIIB
CgKCAQEA0/S6HVZV2PCsjhraUbTebIgImLvxs4GNJWsgpls8LYOkOxM1+hvceLzf
JQZ4u0tEe3O0S0i9xMJNlSNLblGPUy0BHZDToqyHBXlmiyef1WqLnk/wbDB1Rv3w
OfszbElIhTjLRPeQQIo5ov04/3A+xa1cGD5J3clG+FIV3oviyuEnmKx58hJRJPJI
33n7gSi1GrORe+C2tJefSXg1dLHjIyHM3Jgv5OOtuP5IXXi8JJrdUQI5AllndBTH
hJKjpTefGZE2l6bRigX6ewPPOxlntvOLWLbjVMPwFeYIuLkXr70aHKWXBwTnpp8K
VfpRZ1OQm3Pp/ghMkcRX3P5BBC8ifwIDAQABo4IBlTCCAZEwCQYDVR0TBAIwADAR
BglghkgBhvhCAQEEBAMCBkAwNAYJYIZIAYb4QgENBCcWJUVhc3ktUlNBIEdlbmVy
YXRlZCBTZXJ2ZXIgQ2VydGlmaWNhdGUwHQYDVR0OBBYEFFEvQ/xAbQxqDB8aH7HX
OBVvpmBhMIHaBgNVHSMEgdIwgc+AFAOO6iWP1dQ2+CAf+Nb2X2vp5+jFoYGrpIGo
MIGlMQswCQYDVQQGEwJWTjENMAsGA1UECBMESENNQzEZMBcGA1UEBxMQSG8gQ2hp
IE1pbmggQ2l0eTESMBAGA1UEChMJRklUIEhDTVVTMRMwEQYDVQQLEwpIdXkgYW5k
IEh5MRUwEwYDVQQDEwxGSVQgSENNVVMgQ0ExDTALBgNVBCkTBHJvb3QxHTAbBgkq
hkiG9w0BCQEWDnJvb3RAaHV5aHkuY29tggkA3g+CSApUEYAwEwYDVR0lBAwwCgYI
KwYBBQUHAwEwCwYDVR0PBAQDAgWgMB0GA1UdEQQWMBSCEnd3dy5odXloeW1lZGlh
LmNvbTANBgkqhkiG9w0BAQsFAAOCAQEAOUWJpW4sYQdcWaNSm7cYwEhKZYDmrQDu
VRtTODyOvzaC/WatbN6AeM1jZs65GICCKzoaHno5uDIuzFzrO5N7yYJaw0fpfkVw
0eKJUJXIEVPTwDfPa3NAgAk7C9Cba3JqeyXIxwmrBXZfGVLqpb1jzAjAT4y61Ksi
T4UD1JIHAY87rpYDt9GdROKMI9Oj0Bd7IXLEiTWFkgscZHGRn/95n36b8rLgr1he
Hpaa4j5w8Xl5Kji7znABj5Aue8Zk4Cju0lwnE3NAbry9x3REn7sBAdLuCOm0c+DL
026q5WNPi6NoPGBNwNQWShJal+Md0Te7NelROJ36ogcImxcVQhlKQA==
-----END CERTIFICATE-----
