Certificate:
    Data:
        Version: 3 (0x2)
        Serial Number: 3 (0x3)
    Signature Algorithm: sha256WithRSAEncryption
        Issuer: C=VN, ST=HCMC, L=Ho Chi Minh City, O=FIT HCMUS, OU=Huy and Hy, CN=FIT HCMUS CA/name=root/emailAddress=root@huyhy.com
        Validity
            Not Before: Jan 11 17:00:09 2019 GMT
            Not After : Jan  8 17:00:09 2029 GMT
        Subject: C=VN, ST=HCMC, L=Ho Chi Minh City, O=FIT HCMUS, OU=Huy and Hy, CN=mail.huyhy.com/name=root/emailAddress=root@huyhy.com
        Subject Public Key Info:
            Public Key Algorithm: rsaEncryption
                Public-Key: (2048 bit)
                Modulus:
                    00:b2:f9:c4:2d:53:10:be:00:51:e5:43:7b:9c:7f:
                    de:c0:7c:4f:37:46:ec:04:9c:c7:6b:82:74:80:14:
                    19:21:45:95:4a:aa:c7:0b:87:04:4b:c6:c4:7d:cc:
                    d0:9a:30:f0:46:ab:a6:c5:85:ae:77:bc:7c:a4:32:
                    48:09:d1:4a:f6:97:5c:79:28:ed:1f:21:b3:02:94:
                    9a:68:d7:50:e4:ab:20:6d:25:54:09:9c:07:cf:3a:
                    c7:11:a2:76:d2:09:66:6b:6f:c8:ad:78:e4:93:2d:
                    3d:36:4f:9d:ba:be:32:2d:6f:53:4f:3e:d4:49:da:
                    1c:ae:25:1c:e4:c8:21:3b:c0:4e:c9:42:81:53:4f:
                    e1:e9:1f:cf:d0:b3:56:7d:bf:7c:d1:be:71:ed:08:
                    ef:ec:8e:3e:58:0a:ce:8d:f9:29:a5:87:d9:40:78:
                    19:5d:46:d1:7d:e3:8a:93:2e:7d:36:b6:02:31:a1:
                    9d:d1:3d:e9:9e:ff:7a:88:1c:9d:6d:f3:6d:fd:e5:
                    c4:0a:e0:51:1a:59:e3:f4:f2:74:ac:ad:36:89:ae:
                    96:74:22:53:e2:35:cf:15:2f:29:15:c8:a3:da:7a:
                    b3:e6:19:f3:86:9b:c8:d7:4d:7d:8f:63:63:eb:aa:
                    2d:f0:61:57:2d:2b:38:2b:78:59:54:6c:a7:52:be:
                    08:55
                Exponent: 65537 (0x10001)
        X509v3 extensions:
            X509v3 Basic Constraints: 
                CA:FALSE
            Netscape Cert Type: 
                SSL Server
            Netscape Comment: 
                Easy-RSA Generated Server Certificate
            X509v3 Subject Key Identifier: 
                27:9B:22:5D:F6:FF:8A:15:8D:CF:D2:59:CE:F1:60:92:B5:4F:04:9E
            X509v3 Authority Key Identifier: 
                keyid:03:8E:EA:25:8F:D5:D4:36:F8:20:1F:F8:D6:F6:5F:6B:E9:E7:E8:C5
                DirName:/C=VN/ST=HCMC/L=Ho Chi Minh City/O=FIT HCMUS/OU=Huy and Hy/CN=FIT HCMUS CA/name=root/emailAddress=root@huyhy.com
                serial:DE:0F:82:48:0A:54:11:80

            X509v3 Extended Key Usage: 
                TLS Web Server Authentication
            X509v3 Key Usage: 
                Digital Signature, Key Encipherment
            X509v3 Subject Alternative Name: 
                DNS:mail.huyhy.com
    Signature Algorithm: sha256WithRSAEncryption
         11:0f:a1:66:dc:0d:4a:34:ca:12:c2:85:49:07:d8:13:dc:db:
         e3:2a:34:27:c7:35:ab:30:3e:4c:b3:10:14:5c:04:31:43:a9:
         61:38:c1:1f:f7:7a:12:c9:e3:61:93:41:00:da:f7:79:96:cc:
         9d:2d:c7:e5:e4:81:08:11:06:13:69:5c:ee:3b:e3:9c:93:88:
         23:49:66:13:b5:17:a5:4b:ea:48:1b:42:7f:fe:38:ce:63:e5:
         1e:6a:46:29:7a:14:01:36:0f:20:2b:8d:16:10:7e:35:03:1f:
         0d:06:95:2f:11:d4:a4:70:a3:b8:12:94:c6:3c:1a:2a:b1:0c:
         8f:79:98:71:26:67:3c:4b:fa:d6:bb:b3:b7:eb:a8:ba:0a:0f:
         a0:d3:60:ff:5b:7c:b7:1b:65:84:aa:1a:2f:cc:3f:28:34:5a:
         4f:24:3f:b8:fd:f3:72:fd:ab:ee:d8:6a:bc:04:99:72:d6:6b:
         e6:cf:ae:09:c1:71:be:a5:a1:e7:f8:61:e5:2c:77:9d:28:17:
         2a:37:cb:9e:7e:ef:5d:39:23:a9:22:ae:15:b7:58:42:ae:c8:
         4a:ea:00:6b:36:0b:f1:52:41:c4:88:db:58:3f:92:c2:16:b7:
         c4:6d:f7:88:13:5f:3d:3c:3a:d8:d4:6c:da:70:3d:4b:9b:6c:
         6c:5d:31:b6
-----BEGIN CERTIFICATE-----
MIIFXDCCBESgAwIBAgIBAzANBgkqhkiG9w0BAQsFADCBpTELMAkGA1UEBhMCVk4x
DTALBgNVBAgTBEhDTUMxGTAXBgNVBAcTEEhvIENoaSBNaW5oIENpdHkxEjAQBgNV
BAoTCUZJVCBIQ01VUzETMBEGA1UECxMKSHV5IGFuZCBIeTEVMBMGA1UEAxMMRklU
IEhDTVVTIENBMQ0wCwYDVQQpEwRyb290MR0wGwYJKoZIhvcNAQkBFg5yb290QGh1
eWh5LmNvbTAeFw0xOTAxMTExNzAwMDlaFw0yOTAxMDgxNzAwMDlaMIGnMQswCQYD
VQQGEwJWTjENMAsGA1UECBMESENNQzEZMBcGA1UEBxMQSG8gQ2hpIE1pbmggQ2l0
eTESMBAGA1UEChMJRklUIEhDTVVTMRMwEQYDVQQLEwpIdXkgYW5kIEh5MRcwFQYD
VQQDEw5tYWlsLmh1eWh5LmNvbTENMAsGA1UEKRMEcm9vdDEdMBsGCSqGSIb3DQEJ
ARYOcm9vdEBodXloeS5jb20wggEiMA0GCSqGSIb3DQEBAQUAA4IBDwAwggEKAoIB
AQCy+cQtUxC+AFHlQ3ucf97AfE83RuwEnMdrgnSAFBkhRZVKqscLhwRLxsR9zNCa
MPBGq6bFha53vHykMkgJ0Ur2l1x5KO0fIbMClJpo11DkqyBtJVQJnAfPOscRonbS
CWZrb8iteOSTLT02T526vjItb1NPPtRJ2hyuJRzkyCE7wE7JQoFTT+HpH8/Qs1Z9
v3zRvnHtCO/sjj5YCs6N+Smlh9lAeBldRtF944qTLn02tgIxoZ3RPeme/3qIHJ1t
82395cQK4FEaWeP08nSsrTaJrpZ0IlPiNc8VLykVyKPaerPmGfOGm8jXTX2PY2Pr
qi3wYVctKzgreFlUbKdSvghVAgMBAAGjggGRMIIBjTAJBgNVHRMEAjAAMBEGCWCG
SAGG+EIBAQQEAwIGQDA0BglghkgBhvhCAQ0EJxYlRWFzeS1SU0EgR2VuZXJhdGVk
IFNlcnZlciBDZXJ0aWZpY2F0ZTAdBgNVHQ4EFgQUJ5siXfb/ihWNz9JZzvFgkrVP
BJ4wgdoGA1UdIwSB0jCBz4AUA47qJY/V1Db4IB/41vZfa+nn6MWhgaukgagwgaUx
CzAJBgNVBAYTAlZOMQ0wCwYDVQQIEwRIQ01DMRkwFwYDVQQHExBIbyBDaGkgTWlu
aCBDaXR5MRIwEAYDVQQKEwlGSVQgSENNVVMxEzARBgNVBAsTCkh1eSBhbmQgSHkx
FTATBgNVBAMTDEZJVCBIQ01VUyBDQTENMAsGA1UEKRMEcm9vdDEdMBsGCSqGSIb3
DQEJARYOcm9vdEBodXloeS5jb22CCQDeD4JIClQRgDATBgNVHSUEDDAKBggrBgEF
BQcDATALBgNVHQ8EBAMCBaAwGQYDVR0RBBIwEIIObWFpbC5odXloeS5jb20wDQYJ
KoZIhvcNAQELBQADggEBABEPoWbcDUo0yhLChUkH2BPc2+MqNCfHNaswPkyzEBRc
BDFDqWE4wR/3ehLJ42GTQQDa93mWzJ0tx+XkgQgRBhNpXO4745yTiCNJZhO1F6VL
6kgbQn/+OM5j5R5qRil6FAE2DyArjRYQfjUDHw0GlS8R1KRwo7gSlMY8GiqxDI95
mHEmZzxL+ta7s7frqLoKD6DTYP9bfLcbZYSqGi/MPyg0Wk8kP7j983L9q+7YarwE
mXLWa+bPrgnBcb6loef4YeUsd50oFyo3y55+7105I6kirhW3WEKuyErqAGs2C/FS
QcSI21g/ksIWt8Rt94gTXz08OtjUbNpwPUubbGxdMbY=
-----END CERTIFICATE-----
